; Function Attrs: mustprogress nounwind uwtable
define hidden noundef ptr @_ZN13CallGenerator18for_mh_late_inlineEP8ciMethodS1_b(ptr noundef %0, ptr noundef %1, i1 noundef zeroext %2) local_unnamed_addr #0 align 2 {
  %4 = tail call align 8 ptr @llvm.threadlocal.address.p0(ptr align 8 @_ZN6Thread12_thr_currentE)
  %5 = load ptr, ptr %4, align 8
  %6 = getelementptr inbounds i8, ptr %5, i64 1808
  %7 = load ptr, ptr %6, align 8
  %8 = getelementptr inbounds i8, ptr %7, i64 128
  %9 = load ptr, ptr %8, align 8
  %10 = getelementptr inbounds i8, ptr %9, i64 2084
  %11 = load i32, ptr %10, align 4
  %12 = add i32 %11, 1
  store i32 %12, ptr %10, align 4
  %13 = load ptr, ptr %6, align 8
  %14 = getelementptr inbounds i8, ptr %13, i64 128
  %15 = load ptr, ptr %14, align 8
  %16 = getelementptr inbounds i8, ptr %15, i64 296
  %17 = tail call noundef ptr @_ZN8ArenaObjnwEmP5Arena(i64 noundef 72, ptr noundef nonnull %16) #7
  %18 = icmp eq ptr %17, null
  br i1 %18, label %28, label %19

19:                                               ; preds = %3
  %20 = zext i1 %2 to i8
  %21 = getelementptr inbounds i8, ptr %17, i64 8
  store ptr %1, ptr %21, align 8
  %22 = getelementptr inbounds i8, ptr %17, i64 24
  store i8 1, ptr %22, align 8
  %23 = getelementptr inbounds i8, ptr %17, i64 32
  store i64 0, ptr %23, align 8
  %24 = getelementptr inbounds i8, ptr %17, i64 40
  store i8 0, ptr %24, align 8
  %25 = getelementptr inbounds i8, ptr %17, i64 48
  store ptr null, ptr %25, align 8
  store ptr getelementptr inbounds inrange(-16, 200) (i8, ptr @_ZTV25LateInlineMHCallGenerator, i64 16), ptr %17, align 8
  %26 = getelementptr inbounds i8, ptr %17, i64 56
  store ptr %0, ptr %26, align 8
  %27 = getelementptr inbounds i8, ptr %17, i64 64
  store i8 %20, ptr %27, align 8
  br label %28

28:                                               ; preds = %19, %3
  ret ptr %17
}